target datalayout = "e-m:e-p270:32:32-p271:32:32-p272:64:64-i64:64-i128:128-f80:128-n8:16:32:64-S128"
target triple = "x86_64-pc-linux-gnu"

@.str = private unnamed_addr constant [2 x i8] c" \00", align 1
@.str.1 = private unnamed_addr constant [19 x i8] c"%s: not available\0A\00", align 1
@.str.5 = private unnamed_addr constant [5 x i8] c"%s:\09\00", align 1
@.str.6 = private unnamed_addr constant [7 x i8] c"  %10g\00", align 1
@.str.7 = private unnamed_addr constant [2 x i8] c"\0A\00", align 1

; Function Attrs: mustprogress nounwind uwtable
define noundef i32 @_Z9pr_indentP8_IO_FILEi(ptr noundef %0, i32 noundef %1) #0 {
  %3 = alloca ptr, align 8
  %4 = alloca i32, align 4
  %5 = alloca i32, align 4
  store ptr %0, ptr %3, align 8
  store i32 %1, ptr %4, align 4
  store i32 0, ptr %5, align 4
  br label %6

6:                                                ; preds = %13, %2
  %7 = load i32, ptr %5, align 4
  %8 = load i32, ptr %4, align 4
  %9 = icmp slt i32 %7, %8
  br i1 %9, label %10, label %16

10:                                               ; preds = %6
  %11 = load ptr, ptr %3, align 8
  %12 = call i32 (ptr, ptr, ...) @fprintf(ptr noundef %11, ptr noundef @.str) #4
  br label %13

13:                                               ; preds = %10
  %14 = load i32, ptr %5, align 4
  %15 = add nsw i32 %14, 1
  store i32 %15, ptr %5, align 4
  br label %6, !llvm.loop !5

16:                                               ; preds = %6
  %17 = load i32, ptr %4, align 4
  ret i32 %17
}

; Function Attrs: mustprogress nounwind uwtable
define noundef zeroext i1 @_Z9availableP8_IO_FILEPKviPKc(ptr noundef %0, ptr noundef %1, i32 noundef %2, ptr noundef %3) #0 {
  %5 = alloca ptr, align 8
  %6 = alloca ptr, align 8
  %7 = alloca i32, align 4
  %8 = alloca ptr, align 8
  store ptr %0, ptr %5, align 8
  store ptr %1, ptr %6, align 8
  store i32 %2, ptr %7, align 4
  store ptr %3, ptr %8, align 8
  %9 = load ptr, ptr %6, align 8
  %10 = icmp ne ptr %9, null
  br i1 %10, label %22, label %11

11:                                               ; preds = %4
  %12 = load i32, ptr %7, align 4
  %13 = icmp sgt i32 %12, 0
  br i1 %13, label %14, label %18

14:                                               ; preds = %11
  %15 = load ptr, ptr %5, align 8
  %16 = load i32, ptr %7, align 4
  %17 = call noundef i32 @_Z9pr_indentP8_IO_FILEi(ptr noundef %15, i32 noundef %16)
  br label %18

18:                                               ; preds = %14, %11
  %19 = load ptr, ptr %5, align 8
  %20 = load ptr, ptr %8, align 8
  %21 = call i32 (ptr, ptr, ...) @fprintf(ptr noundef %19, ptr noundef @.str.1, ptr noundef %20) #4
  br label %22

22:                                               ; preds = %18, %4
  %23 = load ptr, ptr %6, align 8
  %24 = icmp ne ptr %23, null
  ret i1 %24
}

; Function Attrs: mustprogress nounwind uwtable
define void @_Z10pr_doublesP8_IO_FILEiPKcPKdi(ptr noundef %0, i32 noundef %1, ptr noundef %2, ptr noundef %3, i32 noundef %4) #0 {
  %6 = alloca ptr, align 8
  %7 = alloca i32, align 4
  %8 = alloca ptr, align 8
  %9 = alloca ptr, align 8
  %10 = alloca i32, align 4
  %11 = alloca i32, align 4
  store ptr %0, ptr %6, align 8
  store i32 %1, ptr %7, align 4
  store ptr %2, ptr %8, align 8
  store ptr %3, ptr %9, align 8
  store i32 %4, ptr %10, align 4
  %12 = load ptr, ptr %6, align 8
  %13 = load ptr, ptr %9, align 8
  %14 = load i32, ptr %7, align 4
  %15 = load ptr, ptr %8, align 8
  %16 = call noundef zeroext i1 @_Z9availableP8_IO_FILEPKviPKc(ptr noundef %12, ptr noundef %13, i32 noundef %14, ptr noundef %15)
  br i1 %16, label %17, label %42

17:                                               ; preds = %5
  %18 = load ptr, ptr %6, align 8
  %19 = load i32, ptr %7, align 4
  %20 = call noundef i32 @_Z9pr_indentP8_IO_FILEi(ptr noundef %18, i32 noundef %19)
  %21 = load ptr, ptr %6, align 8
  %22 = load ptr, ptr %8, align 8
  %23 = call i32 (ptr, ptr, ...) @fprintf(ptr noundef %21, ptr noundef @.str.5, ptr noundef %22) #4
  store i32 0, ptr %11, align 4
  br label %24

24:                                               ; preds = %36, %17
  %25 = load i32, ptr %11, align 4
  %26 = load i32, ptr %10, align 4
  %27 = icmp slt i32 %25, %26
  br i1 %27, label %28, label %39

28:                                               ; preds = %24
  %29 = load ptr, ptr %6, align 8
  %30 = load ptr, ptr %9, align 8
  %31 = load i32, ptr %11, align 4
  %32 = sext i32 %31 to i64
  %33 = getelementptr inbounds double, ptr %30, i64 %32
  %34 = load double, ptr %33, align 8
  %35 = call i32 (ptr, ptr, ...) @fprintf(ptr noundef %29, ptr noundef @.str.6, double noundef %34) #4
  br label %36

36:                                               ; preds = %28
  %37 = load i32, ptr %11, align 4
  %38 = add nsw i32 %37, 1
  store i32 %38, ptr %11, align 4
  br label %24, !llvm.loop !8

39:                                               ; preds = %24
  %40 = load ptr, ptr %6, align 8
  %41 = call i32 (ptr, ptr, ...) @fprintf(ptr noundef %40, ptr noundef @.str.7) #4
  br label %42

42:                                               ; preds = %39, %5
  ret void
}