; Function Attrs: mustprogress nofree nounwind uwtable
define void @_Z10pr_doublesP8_IO_FILEiPKcPKdi(ptr nocapture noundef %0, i32 noundef %1, ptr noundef %2, ptr noundef readonly %3, i32 noundef %4) local_unnamed_addr #0 {
  %.not = icmp eq ptr %3, null
  %6 = icmp sgt i32 %1, 0
  br i1 %.not, label %7, label %_Z9availableP8_IO_FILEPKviPKc.exit.thread

7:                                                ; preds = %5
  br i1 %6, label %.lr.ph.i.i, label %_Z9availableP8_IO_FILEPKviPKc.exit.thread14

_Z9availableP8_IO_FILEPKviPKc.exit.thread14:      ; preds = %7
  %8 = tail call i32 (ptr, ptr, ...) @fprintf(ptr noundef %0, ptr noundef nonnull @.str.1, ptr noundef %2) #6
  br label %17

.lr.ph.i.i:                                       ; preds = %7, %.lr.ph.i.i
  %.05.i.i = phi i32 [ %9, %.lr.ph.i.i ], [ 0, %7 ]
  %fputc.i.i = tail call i32 @fputc(i32 32, ptr %0)
  %9 = add nuw nsw i32 %.05.i.i, 1
  %exitcond.not.i.i = icmp eq i32 %9, %1
  br i1 %exitcond.not.i.i, label %_Z9availableP8_IO_FILEPKviPKc.exit, label %.lr.ph.i.i, !llvm.loop !5

_Z9availableP8_IO_FILEPKviPKc.exit:               ; preds = %.lr.ph.i.i
  %10 = tail call i32 (ptr, ptr, ...) @fprintf(ptr noundef %0, ptr noundef nonnull @.str.1, ptr noundef %2) #6
  br label %17

_Z9availableP8_IO_FILEPKviPKc.exit.thread:        ; preds = %5
  br i1 %6, label %.lr.ph.i, label %_Z9pr_indentP8_IO_FILEi.exit

.lr.ph.i:                                         ; preds = %_Z9availableP8_IO_FILEPKviPKc.exit.thread, %.lr.ph.i
  %.05.i = phi i32 [ %11, %.lr.ph.i ], [ 0, %_Z9availableP8_IO_FILEPKviPKc.exit.thread ]
  %fputc.i = tail call i32 @fputc(i32 32, ptr %0)
  %11 = add nuw nsw i32 %.05.i, 1
  %exitcond.not.i = icmp eq i32 %11, %1
  br i1 %exitcond.not.i, label %_Z9pr_indentP8_IO_FILEi.exit, label %.lr.ph.i, !llvm.loop !5

_Z9pr_indentP8_IO_FILEi.exit:                     ; preds = %.lr.ph.i, %_Z9availableP8_IO_FILEPKviPKc.exit.thread
  %12 = tail call i32 (ptr, ptr, ...) @fprintf(ptr noundef %0, ptr noundef nonnull @.str.5, ptr noundef %2) #6
  %13 = icmp sgt i32 %4, 0
  br i1 %13, label %.lr.ph.preheader, label %._crit_edge

.lr.ph.preheader:                                 ; preds = %_Z9pr_indentP8_IO_FILEi.exit
  %wide.trip.count = zext nneg i32 %4 to i64
  br label %.lr.ph

.lr.ph:                                           ; preds = %.lr.ph.preheader, %.lr.ph
  %indvars.iv = phi i64 [ 0, %.lr.ph.preheader ], [ %indvars.iv.next, %.lr.ph ]
  %14 = getelementptr inbounds double, ptr %3, i64 %indvars.iv
  %15 = load double, ptr %14, align 8
  %16 = tail call i32 (ptr, ptr, ...) @fprintf(ptr noundef %0, ptr noundef nonnull @.str.6, double noundef %15) #6
  %indvars.iv.next = add nuw nsw i64 %indvars.iv, 1
  %exitcond.not = icmp eq i64 %indvars.iv.next, %wide.trip.count
  br i1 %exitcond.not, label %._crit_edge, label %.lr.ph, !llvm.loop !8

._crit_edge:                                      ; preds = %.lr.ph, %_Z9pr_indentP8_IO_FILEi.exit
  %fputc = tail call i32 @fputc(i32 10, ptr %0)
  br label %17

17:                                               ; preds = %_Z9availableP8_IO_FILEPKviPKc.exit, %_Z9availableP8_IO_FILEPKviPKc.exit.thread14, %._crit_edge
  ret void
}